; Function Attrs: mustprogress nofree nounwind willreturn memory(read) uwtable
define dso_local noundef zeroext i1 @_ZN4Luau11equalsLowerESt17basic_string_viewIcSt11char_traitsIcEES3_(i64 %0, ptr nocapture readonly %1, i64 %2, ptr nocapture readonly %3) local_unnamed_addr #7 {
  %.not = icmp eq i64 %0, %2
  br i1 %.not, label %.preheader, label %.loopexit

.preheader:                                       ; preds = %4
  %.not11 = icmp eq i64 %0, 0
  br i1 %.not11, label %.loopexit, label %.lr.ph

.lr.ph:                                           ; preds = %.preheader, %.lr.ph
  %.08 = phi i64 [ %13, %.lr.ph ], [ 0, %.preheader ]
  %5 = getelementptr inbounds i8, ptr %1, i64 %.08
  %6 = load i8, ptr %5, align 1
  %7 = zext i8 %6 to i32
  %8 = tail call i32 @tolower(i32 noundef %7) #25
  %9 = getelementptr inbounds i8, ptr %3, i64 %.08
  %10 = load i8, ptr %9, align 1
  %11 = zext i8 %10 to i32
  %12 = tail call i32 @tolower(i32 noundef %11) #25
  %.not5 = icmp eq i32 %8, %12
  %13 = add nuw i64 %.08, 1
  %exitcond.not = icmp ne i64 %13, %0
  %or.cond.not = select i1 %.not5, i1 %exitcond.not, i1 false
  br i1 %or.cond.not, label %.lr.ph, label %.loopexit, !llvm.loop !30

.loopexit:                                        ; preds = %.lr.ph, %.preheader, %4
  %.04 = phi i1 [ false, %4 ], [ true, %.preheader ], [ %.not5, %.lr.ph ]
  ret i1 %.04
}